target datalayout = "e-m:e-p270:32:32-p271:32:32-p272:64:64-i64:64-i128:128-f80:128-n8:16:32:64-S128"
target triple = "x86_64-pc-linux-gnu"

%struct._cms_typehandler_struct = type { i32, ptr, ptr, ptr, ptr, ptr, i32 }
%struct._cms_MLU_struct = type { ptr, i32, i32, ptr, i32, i32, ptr }
%struct._cmsMLUentry = type { i16, i16, i32, i32 }

@.str.15 = private unnamed_addr constant [57 x i8] c"multiLocalizedUnicodeType of len != 12 is not supported.\00", align 1

; Function Attrs: nounwind uwtable
define internal ptr @Type_MLU_Read(ptr noundef %0, ptr noundef %1, ptr noundef %2, i32 noundef %3) #0 {
  %5 = alloca ptr, align 8
  %6 = alloca ptr, align 8
  %7 = alloca ptr, align 8
  %8 = alloca ptr, align 8
  %9 = alloca i32, align 4
  %10 = alloca ptr, align 8
  %11 = alloca i32, align 4
  %12 = alloca i32, align 4
  %13 = alloca i32, align 4
  %14 = alloca i32, align 4
  %15 = alloca i32, align 4
  %16 = alloca i32, align 4
  %17 = alloca i32, align 4
  %18 = alloca ptr, align 8
  %19 = alloca i32, align 4
  %20 = alloca i32, align 4
  %21 = alloca i32, align 4
  store ptr %0, ptr %6, align 8
  store ptr %1, ptr %7, align 8
  store ptr %2, ptr %8, align 8
  store i32 %3, ptr %9, align 4
  %22 = load ptr, ptr %8, align 8
  store i32 0, ptr %22, align 4
  %23 = load ptr, ptr %7, align 8
  %24 = call i32 @_cmsReadUInt32Number(ptr noundef %23, ptr noundef %11)
  %25 = icmp ne i32 %24, 0
  br i1 %25, label %27, label %26

26:                                               ; preds = %4
  store ptr null, ptr %5, align 8
  br label %218

27:                                               ; preds = %4
  %28 = load ptr, ptr %7, align 8
  %29 = call i32 @_cmsReadUInt32Number(ptr noundef %28, ptr noundef %12)
  %30 = icmp ne i32 %29, 0
  br i1 %30, label %32, label %31

31:                                               ; preds = %27
  store ptr null, ptr %5, align 8
  br label %218

32:                                               ; preds = %27
  %33 = load i32, ptr %12, align 4
  %34 = icmp ne i32 %33, 12
  br i1 %34, label %35, label %39

35:                                               ; preds = %32
  %36 = load ptr, ptr %6, align 8
  %37 = getelementptr inbounds %struct._cms_typehandler_struct, ptr %36, i32 0, i32 5
  %38 = load ptr, ptr %37, align 8
  call void (ptr, i32, ptr, ...) @cmsSignalError(ptr noundef %38, i32 noundef 8, ptr noundef @.str.15)
  store ptr null, ptr %5, align 8
  br label %218

39:                                               ; preds = %32
  %40 = load ptr, ptr %6, align 8
  %41 = getelementptr inbounds %struct._cms_typehandler_struct, ptr %40, i32 0, i32 5
  %42 = load ptr, ptr %41, align 8
  %43 = load i32, ptr %11, align 4
  %44 = call ptr @cmsMLUalloc(ptr noundef %42, i32 noundef %43)
  store ptr %44, ptr %10, align 8
  %45 = load ptr, ptr %10, align 8
  %46 = icmp eq ptr %45, null
  br i1 %46, label %47, label %48

47:                                               ; preds = %39
  store ptr null, ptr %5, align 8
  br label %218

48:                                               ; preds = %39
  %49 = load i32, ptr %11, align 4
  %50 = load ptr, ptr %10, align 8
  %51 = getelementptr inbounds %struct._cms_MLU_struct, ptr %50, i32 0, i32 2
  store i32 %49, ptr %51, align 4
  %52 = load i32, ptr %11, align 4
  %53 = mul i32 12, %52
  %54 = zext i32 %53 to i64
  %55 = add i64 %54, 8
  %56 = trunc i64 %55 to i32
  store i32 %56, ptr %14, align 4
  store i32 0, ptr %21, align 4
  store i32 0, ptr %17, align 4
  br label %57

57:                                               ; preds = %158, %48
  %58 = load i32, ptr %17, align 4
  %59 = load i32, ptr %11, align 4
  %60 = icmp ult i32 %58, %59
  br i1 %60, label %61, label %161

61:                                               ; preds = %57
  %62 = load ptr, ptr %7, align 8
  %63 = load ptr, ptr %10, align 8
  %64 = getelementptr inbounds %struct._cms_MLU_struct, ptr %63, i32 0, i32 3
  %65 = load ptr, ptr %64, align 8
  %66 = load i32, ptr %17, align 4
  %67 = zext i32 %66 to i64
  %68 = getelementptr inbounds %struct._cmsMLUentry, ptr %65, i64 %67
  %69 = getelementptr inbounds %struct._cmsMLUentry, ptr %68, i32 0, i32 0
  %70 = call i32 @_cmsReadUInt16Number(ptr noundef %62, ptr noundef %69)
  %71 = icmp ne i32 %70, 0
  br i1 %71, label %73, label %72

72:                                               ; preds = %61
  br label %212

73:                                               ; preds = %61
  %74 = load ptr, ptr %7, align 8
  %75 = load ptr, ptr %10, align 8
  %76 = getelementptr inbounds %struct._cms_MLU_struct, ptr %75, i32 0, i32 3
  %77 = load ptr, ptr %76, align 8
  %78 = load i32, ptr %17, align 4
  %79 = zext i32 %78 to i64
  %80 = getelementptr inbounds %struct._cmsMLUentry, ptr %77, i64 %79
  %81 = getelementptr inbounds %struct._cmsMLUentry, ptr %80, i32 0, i32 1
  %82 = call i32 @_cmsReadUInt16Number(ptr noundef %74, ptr noundef %81)
  %83 = icmp ne i32 %82, 0
  br i1 %83, label %85, label %84

84:                                               ; preds = %73
  br label %212

85:                                               ; preds = %73
  %86 = load ptr, ptr %7, align 8
  %87 = call i32 @_cmsReadUInt32Number(ptr noundef %86, ptr noundef %15)
  %88 = icmp ne i32 %87, 0
  br i1 %88, label %90, label %89

89:                                               ; preds = %85
  br label %212

90:                                               ; preds = %85
  %91 = load ptr, ptr %7, align 8
  %92 = call i32 @_cmsReadUInt32Number(ptr noundef %91, ptr noundef %16)
  %93 = icmp ne i32 %92, 0
  br i1 %93, label %95, label %94

94:                                               ; preds = %90
  br label %212

95:                                               ; preds = %90
  %96 = load i32, ptr %16, align 4
  %97 = and i32 %96, 1
  %98 = icmp ne i32 %97, 0
  br i1 %98, label %99, label %100

99:                                               ; preds = %95
  br label %212

100:                                              ; preds = %95
  %101 = load i32, ptr %16, align 4
  %102 = load i32, ptr %14, align 4
  %103 = add i32 %102, 8
  %104 = icmp ult i32 %101, %103
  br i1 %104, label %105, label %106

105:                                              ; preds = %100
  br label %212

106:                                              ; preds = %100
  %107 = load i32, ptr %16, align 4
  %108 = load i32, ptr %15, align 4
  %109 = add i32 %107, %108
  %110 = load i32, ptr %15, align 4
  %111 = icmp ult i32 %109, %110
  br i1 %111, label %119, label %112

112:                                              ; preds = %106
  %113 = load i32, ptr %16, align 4
  %114 = load i32, ptr %15, align 4
  %115 = add i32 %113, %114
  %116 = load i32, ptr %9, align 4
  %117 = add i32 %116, 8
  %118 = icmp ugt i32 %115, %117
  br i1 %118, label %119, label %120

119:                                              ; preds = %112, %106
  br label %212

120:                                              ; preds = %112
  %121 = load i32, ptr %16, align 4
  %122 = load i32, ptr %14, align 4
  %123 = sub i32 %121, %122
  %124 = sub i32 %123, 8
  store i32 %124, ptr %19, align 4
  %125 = load i32, ptr %15, align 4
  %126 = zext i32 %125 to i64
  %127 = mul i64 %126, 4
  %128 = udiv i64 %127, 2
  %129 = trunc i64 %128 to i32
  %130 = load ptr, ptr %10, align 8
  %131 = getelementptr inbounds %struct._cms_MLU_struct, ptr %130, i32 0, i32 3
  %132 = load ptr, ptr %131, align 8
  %133 = load i32, ptr %17, align 4
  %134 = zext i32 %133 to i64
  %135 = getelementptr inbounds %struct._cmsMLUentry, ptr %132, i64 %134
  %136 = getelementptr inbounds %struct._cmsMLUentry, ptr %135, i32 0, i32 3
  store i32 %129, ptr %136, align 4
  %137 = load i32, ptr %19, align 4
  %138 = zext i32 %137 to i64
  %139 = mul i64 %138, 4
  %140 = udiv i64 %139, 2
  %141 = trunc i64 %140 to i32
  %142 = load ptr, ptr %10, align 8
  %143 = getelementptr inbounds %struct._cms_MLU_struct, ptr %142, i32 0, i32 3
  %144 = load ptr, ptr %143, align 8
  %145 = load i32, ptr %17, align 4
  %146 = zext i32 %145 to i64
  %147 = getelementptr inbounds %struct._cmsMLUentry, ptr %144, i64 %146
  %148 = getelementptr inbounds %struct._cmsMLUentry, ptr %147, i32 0, i32 2
  store i32 %141, ptr %148, align 4
  %149 = load i32, ptr %19, align 4
  %150 = load i32, ptr %15, align 4
  %151 = add i32 %149, %150
  store i32 %151, ptr %20, align 4
  %152 = load i32, ptr %20, align 4
  %153 = load i32, ptr %21, align 4
  %154 = icmp ugt i32 %152, %153
  br i1 %154, label %155, label %157

155:                                              ; preds = %120
  %156 = load i32, ptr %20, align 4
  store i32 %156, ptr %21, align 4
  br label %157

157:                                              ; preds = %155, %120
  br label %158

158:                                              ; preds = %157
  %159 = load i32, ptr %17, align 4
  %160 = add i32 %159, 1
  store i32 %160, ptr %17, align 4
  br label %57, !llvm.loop !35

161:                                              ; preds = %57
  %162 = load i32, ptr %21, align 4
  %163 = zext i32 %162 to i64
  %164 = mul i64 %163, 4
  %165 = udiv i64 %164, 2
  %166 = trunc i64 %165 to i32
  store i32 %166, ptr %9, align 4
  %167 = load i32, ptr %9, align 4
  %168 = icmp eq i32 %167, 0
  br i1 %168, label %169, label %170

169:                                              ; preds = %161
  store ptr null, ptr %18, align 8
  br label %200

170:                                              ; preds = %161
  %171 = load i32, ptr %9, align 4
  %172 = and i32 %171, 1
  %173 = icmp ne i32 %172, 0
  br i1 %173, label %174, label %175

174:                                              ; preds = %170
  br label %212

175:                                              ; preds = %170
  %176 = load ptr, ptr %6, align 8
  %177 = getelementptr inbounds %struct._cms_typehandler_struct, ptr %176, i32 0, i32 5
  %178 = load ptr, ptr %177, align 8
  %179 = load i32, ptr %9, align 4
  %180 = call ptr @_cmsCalloc(ptr noundef %178, i32 noundef 1, i32 noundef %179)
  store ptr %180, ptr %18, align 8
  %181 = load ptr, ptr %18, align 8
  %182 = icmp eq ptr %181, null
  br i1 %182, label %183, label %184

183:                                              ; preds = %175
  br label %212

184:                                              ; preds = %175
  %185 = load i32, ptr %9, align 4
  %186 = zext i32 %185 to i64
  %187 = udiv i64 %186, 4
  %188 = trunc i64 %187 to i32
  store i32 %188, ptr %13, align 4
  %189 = load ptr, ptr %7, align 8
  %190 = load i32, ptr %13, align 4
  %191 = load ptr, ptr %18, align 8
  %192 = call i32 @_cmsReadWCharArray(ptr noundef %189, i32 noundef %190, ptr noundef %191)
  %193 = icmp ne i32 %192, 0
  br i1 %193, label %199, label %194

194:                                              ; preds = %184
  %195 = load ptr, ptr %6, align 8
  %196 = getelementptr inbounds %struct._cms_typehandler_struct, ptr %195, i32 0, i32 5
  %197 = load ptr, ptr %196, align 8
  %198 = load ptr, ptr %18, align 8
  call void @_cmsFree(ptr noundef %197, ptr noundef %198)
  br label %212

199:                                              ; preds = %184
  br label %200

200:                                              ; preds = %199, %169
  %201 = load ptr, ptr %18, align 8
  %202 = load ptr, ptr %10, align 8
  %203 = getelementptr inbounds %struct._cms_MLU_struct, ptr %202, i32 0, i32 6
  store ptr %201, ptr %203, align 8
  %204 = load i32, ptr %9, align 4
  %205 = load ptr, ptr %10, align 8
  %206 = getelementptr inbounds %struct._cms_MLU_struct, ptr %205, i32 0, i32 4
  store i32 %204, ptr %206, align 8
  %207 = load i32, ptr %9, align 4
  %208 = load ptr, ptr %10, align 8
  %209 = getelementptr inbounds %struct._cms_MLU_struct, ptr %208, i32 0, i32 5
  store i32 %207, ptr %209, align 4
  %210 = load ptr, ptr %8, align 8
  store i32 1, ptr %210, align 4
  %211 = load ptr, ptr %10, align 8
  store ptr %211, ptr %5, align 8
  br label %218

212:                                              ; preds = %194, %183, %174, %119, %105, %99, %94, %89, %84, %72
  %213 = load ptr, ptr %10, align 8
  %214 = icmp ne ptr %213, null
  br i1 %214, label %215, label %217

215:                                              ; preds = %212
  %216 = load ptr, ptr %10, align 8
  call void @cmsMLUfree(ptr noundef %216)
  br label %217

217:                                              ; preds = %215, %212
  store ptr null, ptr %5, align 8
  br label %218

218:                                              ; preds = %217, %200, %47, %35, %31, %26
  %219 = load ptr, ptr %5, align 8
  ret ptr %219
}