; Function Attrs: nounwind uwtable
define internal ptr @Type_MLU_Read(ptr nocapture noundef readonly %0, ptr noundef %1, ptr nocapture noundef writeonly %2, i32 noundef %3) #0 {
  %5 = alloca i32, align 4
  %6 = alloca i32, align 4
  %7 = alloca i32, align 4
  %8 = alloca i32, align 4
  store i32 0, ptr %2, align 4
  %9 = call i32 @_cmsReadUInt32Number(ptr noundef %1, ptr noundef nonnull %5) #13
  %.not = icmp eq i32 %9, 0
  br i1 %.not, label %76, label %10

10:                                               ; preds = %4
  %11 = call i32 @_cmsReadUInt32Number(ptr noundef %1, ptr noundef nonnull %6) #13
  %.not61 = icmp eq i32 %11, 0
  br i1 %.not61, label %76, label %12

12:                                               ; preds = %10
  %13 = load i32, ptr %6, align 4
  %.not62 = icmp eq i32 %13, 12
  %14 = getelementptr inbounds i8, ptr %0, i64 40
  %15 = load ptr, ptr %14, align 8
  br i1 %.not62, label %17, label %16

16:                                               ; preds = %12
  call void (ptr, i32, ptr, ...) @cmsSignalError(ptr noundef %15, i32 noundef 8, ptr noundef nonnull @.str.15) #13
  br label %76

17:                                               ; preds = %12
  %18 = load i32, ptr %5, align 4
  %19 = call ptr @cmsMLUalloc(ptr noundef %15, i32 noundef %18) #13
  %20 = icmp eq ptr %19, null
  br i1 %20, label %76, label %21

21:                                               ; preds = %17
  %22 = load i32, ptr %5, align 4
  %23 = getelementptr inbounds i8, ptr %19, i64 12
  store i32 %22, ptr %23, align 4
  %.not76 = icmp eq i32 %22, 0
  br i1 %.not76, label %._crit_edge.thread, label %.lr.ph

.lr.ph:                                           ; preds = %21
  %24 = mul i32 %22, 12
  %25 = getelementptr inbounds i8, ptr %19, i64 16
  %26 = add i32 %24, 16
  %27 = add i32 %3, 8
  br label %28

28:                                               ; preds = %.lr.ph, %49
  %indvars.iv = phi i64 [ 0, %.lr.ph ], [ %indvars.iv.next, %49 ]
  %.075 = phi i32 [ 0, %.lr.ph ], [ %spec.select, %49 ]
  %29 = load ptr, ptr %25, align 8
  %30 = getelementptr inbounds %struct._cmsMLUentry, ptr %29, i64 %indvars.iv
  %31 = call i32 @_cmsReadUInt16Number(ptr noundef %1, ptr noundef %30) #13
  %.not64 = icmp eq i32 %31, 0
  br i1 %.not64, label %.loopexit, label %32

32:                                               ; preds = %28
  %33 = load ptr, ptr %25, align 8
  %34 = getelementptr inbounds %struct._cmsMLUentry, ptr %33, i64 %indvars.iv, i32 1
  %35 = call i32 @_cmsReadUInt16Number(ptr noundef %1, ptr noundef nonnull %34) #13
  %.not65 = icmp eq i32 %35, 0
  br i1 %.not65, label %.loopexit, label %36

36:                                               ; preds = %32
  %37 = call i32 @_cmsReadUInt32Number(ptr noundef %1, ptr noundef nonnull %7) #13
  %.not66 = icmp eq i32 %37, 0
  br i1 %.not66, label %.loopexit, label %38

38:                                               ; preds = %36
  %39 = call i32 @_cmsReadUInt32Number(ptr noundef %1, ptr noundef nonnull %8) #13
  %.not67 = icmp eq i32 %39, 0
  br i1 %.not67, label %.loopexit, label %40

40:                                               ; preds = %38
  %41 = load i32, ptr %8, align 4
  %42 = and i32 %41, 1
  %.not68 = icmp ne i32 %42, 0
  %43 = icmp ult i32 %41, %26
  %or.cond = or i1 %.not68, %43
  br i1 %or.cond, label %.loopexit, label %44

44:                                               ; preds = %40
  %45 = load i32, ptr %7, align 4
  %46 = add i32 %45, %41
  %47 = icmp ult i32 %46, %45
  %48 = icmp ugt i32 %46, %27
  %or.cond71 = or i1 %47, %48
  br i1 %or.cond71, label %.loopexit, label %49

49:                                               ; preds = %44
  %reass.sub = sub i32 %41, %24
  %50 = add i32 %reass.sub, -16
  %51 = shl i32 %45, 1
  %52 = load ptr, ptr %25, align 8
  %53 = getelementptr inbounds %struct._cmsMLUentry, ptr %52, i64 %indvars.iv, i32 3
  store i32 %51, ptr %53, align 4
  %54 = shl i32 %50, 1
  %55 = load ptr, ptr %25, align 8
  %56 = getelementptr inbounds %struct._cmsMLUentry, ptr %55, i64 %indvars.iv, i32 2
  store i32 %54, ptr %56, align 4
  %57 = load i32, ptr %7, align 4
  %58 = add i32 %57, %50
  %spec.select = call i32 @llvm.umax.i32(i32 %58, i32 %.075)
  %indvars.iv.next = add nuw nsw i64 %indvars.iv, 1
  %59 = load i32, ptr %5, align 4
  %60 = zext i32 %59 to i64
  %61 = icmp ult i64 %indvars.iv.next, %60
  br i1 %61, label %28, label %._crit_edge, !llvm.loop !37

._crit_edge:                                      ; preds = %49
  %62 = shl i32 %spec.select, 1
  %63 = icmp eq i32 %62, 0
  br i1 %63, label %._crit_edge.thread, label %64

64:                                               ; preds = %._crit_edge
  %65 = load ptr, ptr %14, align 8
  %66 = call ptr @_cmsCalloc(ptr noundef %65, i32 noundef 1, i32 noundef %62) #13
  %67 = icmp eq ptr %66, null
  br i1 %67, label %.loopexit, label %68

68:                                               ; preds = %64
  %69 = lshr i32 %62, 2
  %70 = call fastcc i32 @_cmsReadWCharArray(ptr noundef %1, i32 noundef %69, ptr noundef nonnull %66)
  %.not63 = icmp eq i32 %70, 0
  br i1 %.not63, label %71, label %._crit_edge.thread

71:                                               ; preds = %68
  %72 = load ptr, ptr %14, align 8
  call void @_cmsFree(ptr noundef %72, ptr noundef nonnull %66) #13
  br label %.loopexit

._crit_edge.thread:                               ; preds = %21, %._crit_edge, %68
  %.0.lcssa79 = phi i32 [ %62, %68 ], [ 0, %._crit_edge ], [ 0, %21 ]
  %.052 = phi ptr [ %66, %68 ], [ null, %._crit_edge ], [ null, %21 ]
  %73 = getelementptr inbounds i8, ptr %19, i64 32
  store ptr %.052, ptr %73, align 8
  %74 = getelementptr inbounds i8, ptr %19, i64 24
  store i32 %.0.lcssa79, ptr %74, align 8
  %75 = getelementptr inbounds i8, ptr %19, i64 28
  store i32 %.0.lcssa79, ptr %75, align 4
  store i32 1, ptr %2, align 4
  br label %76

.loopexit:                                        ; preds = %28, %32, %36, %38, %40, %44, %71, %64
  call void @cmsMLUfree(ptr noundef nonnull %19) #13
  br label %76

76:                                               ; preds = %17, %10, %4, %.loopexit, %._crit_edge.thread, %16
  %.051 = phi ptr [ null, %16 ], [ null, %.loopexit ], [ %19, %._crit_edge.thread ], [ null, %4 ], [ null, %10 ], [ null, %17 ]
  ret ptr %.051
}